; Function Attrs: nounwind uwtable
define range(i32 -173, 1) i32 @wolfSSL_CondFree(ptr noundef %0) local_unnamed_addr #2 {
  %2 = icmp eq ptr %0, null
  br i1 %2, label %8, label %3

3:                                                ; preds = %1
  %4 = tail call i32 @pthread_mutex_destroy(ptr noundef nonnull %0) #16
  %.not = icmp eq i32 %4, 0
  %5 = getelementptr inbounds nuw i8, ptr %0, i64 40
  %6 = tail call i32 @pthread_cond_destroy(ptr noundef nonnull %5) #16
  %.not6 = icmp eq i32 %6, 0
  %7 = select i1 %.not6, i1 %.not, i1 false
  %.1 = select i1 %7, i32 0, i32 -125
  br label %8

8:                                                ; preds = %1, %3
  %.04 = phi i32 [ %.1, %3 ], [ -173, %1 ]
  ret i32 %.04
}